target datalayout = "e-m:e-p270:32:32-p271:32:32-p272:64:64-i64:64-i128:128-f80:128-n8:16:32:64-S128"
target triple = "x86_64-pc-linux-gnu"

%struct.submodule_cache = type { %struct.hashmap, %struct.hashmap, i8 }
%struct.hashmap = type { ptr, ptr, ptr, i32, i32, i32, i32, i8 }
%struct.repository = type { ptr, ptr, ptr, ptr, ptr, %struct.strmap, %struct.strmap, %struct.repo_path_cache, ptr, ptr, ptr, ptr, %struct.repo_settings, ptr, ptr, ptr, ptr, ptr, ptr, i32, i32, i32, ptr, ptr, i32, i32, i8 }
%struct.strmap = type { %struct.hashmap, ptr, i8 }
%struct.repo_path_cache = type { ptr, ptr, ptr, ptr, ptr, ptr, ptr }
%struct.repo_settings = type { i32, i32, i32, i32, i32, i32, i32, i32, i32, i32, i32, i32, ptr, i32, i32, i32, i32, i32, i32, i32, i64, i64, i64 }

; Function Attrs: nounwind uwtable
define internal void @submodule_cache_init(ptr noundef %0) #0 {
  %2 = alloca ptr, align 8
  store ptr %0, ptr %2, align 8, !tbaa !4
  %3 = load ptr, ptr %2, align 8, !tbaa !4
  %4 = getelementptr inbounds nuw %struct.submodule_cache, ptr %3, i32 0, i32 0
  call void @hashmap_init(ptr noundef %4, ptr noundef @config_path_cmp, ptr noundef null, i64 noundef 0)
  %5 = load ptr, ptr %2, align 8, !tbaa !4
  %6 = getelementptr inbounds nuw %struct.submodule_cache, ptr %5, i32 0, i32 1
  call void @hashmap_init(ptr noundef %6, ptr noundef @config_name_cmp, ptr noundef null, i64 noundef 0)
  %7 = load ptr, ptr %2, align 8, !tbaa !4
  %8 = getelementptr inbounds nuw %struct.submodule_cache, ptr %7, i32 0, i32 2
  %9 = load i8, ptr %8, align 8
  %10 = and i8 %9, -2
  %11 = or i8 %10, 1
  store i8 %11, ptr %8, align 8
  ret void
}

; Function Attrs: nounwind uwtable
define internal ptr @submodule_cache_alloc() #0 {
  %1 = call ptr @xcalloc(i64 noundef 1, i64 noundef 104)
  ret ptr %1
}

; Function Attrs: nounwind uwtable
define internal void @submodule_cache_check_init(ptr noundef %0) #0 {
  %2 = alloca ptr, align 8
  store ptr %0, ptr %2, align 8, !tbaa !31
  %3 = load ptr, ptr %2, align 8, !tbaa !31
  %4 = getelementptr inbounds nuw %struct.repository, ptr %3, i32 0, i32 14
  %5 = load ptr, ptr %4, align 8, !tbaa !33
  %6 = icmp ne ptr %5, null
  br i1 %6, label %7, label %17

7:                                                ; preds = %1
  %8 = load ptr, ptr %2, align 8, !tbaa !31
  %9 = getelementptr inbounds nuw %struct.repository, ptr %8, i32 0, i32 14
  %10 = load ptr, ptr %9, align 8, !tbaa !33
  %11 = getelementptr inbounds nuw %struct.submodule_cache, ptr %10, i32 0, i32 2
  %12 = load i8, ptr %11, align 8
  %13 = and i8 %12, 1
  %14 = zext i8 %13 to i32
  %15 = icmp ne i32 %14, 0
  br i1 %15, label %16, label %17

16:                                               ; preds = %7
  br label %30

17:                                               ; preds = %7, %1
  %18 = load ptr, ptr %2, align 8, !tbaa !31
  %19 = getelementptr inbounds nuw %struct.repository, ptr %18, i32 0, i32 14
  %20 = load ptr, ptr %19, align 8, !tbaa !33
  %21 = icmp ne ptr %20, null
  br i1 %21, label %26, label %22

22:                                               ; preds = %17
  %23 = call ptr @submodule_cache_alloc()
  %24 = load ptr, ptr %2, align 8, !tbaa !31
  %25 = getelementptr inbounds nuw %struct.repository, ptr %24, i32 0, i32 14
  store ptr %23, ptr %25, align 8, !tbaa !33
  br label %26

26:                                               ; preds = %22, %17
  %27 = load ptr, ptr %2, align 8, !tbaa !31
  %28 = getelementptr inbounds nuw %struct.repository, ptr %27, i32 0, i32 14
  %29 = load ptr, ptr %28, align 8, !tbaa !33
  call void @submodule_cache_init(ptr noundef %29)
  br label %30

30:                                               ; preds = %26, %16
  ret void
}

; Function Attrs: nounwind uwtable
define dso_local void @repo_read_gitmodules(ptr noundef %0, i32 noundef %1) #0 {
  %3 = alloca ptr, align 8
  %4 = alloca i32, align 4
  store ptr %0, ptr %3, align 8, !tbaa !31
  store i32 %1, ptr %4, align 4, !tbaa !17
  %5 = load ptr, ptr %3, align 8, !tbaa !31
  call void @submodule_cache_check_init(ptr noundef %5)
  %6 = load ptr, ptr %3, align 8, !tbaa !31
  %7 = getelementptr inbounds nuw %struct.repository, ptr %6, i32 0, i32 14
  %8 = load ptr, ptr %7, align 8, !tbaa !33
  %9 = getelementptr inbounds nuw %struct.submodule_cache, ptr %8, i32 0, i32 2
  %10 = load i8, ptr %9, align 8
  %11 = lshr i8 %10, 1
  %12 = and i8 %11, 1
  %13 = zext i8 %12 to i32
  %14 = icmp ne i32 %13, 0
  br i1 %14, label %15, label %19

15:                                               ; preds = %2
  %16 = load i32, ptr %4, align 4, !tbaa !17
  %17 = icmp ne i32 %16, 0
  br i1 %17, label %18, label %19

18:                                               ; preds = %15
  br label %41

19:                                               ; preds = %15, %2
  %20 = load ptr, ptr %3, align 8, !tbaa !31
  %21 = call i32 @repo_read_index(ptr noundef %20)
  %22 = icmp slt i32 %21, 0
  br i1 %22, label %23, label %24

23:                                               ; preds = %19
  br label %41

24:                                               ; preds = %19
  %25 = load ptr, ptr %3, align 8, !tbaa !31
  %26 = getelementptr inbounds nuw %struct.repository, ptr %25, i32 0, i32 15
  %27 = load ptr, ptr %26, align 8, !tbaa !50
  %28 = call i32 @is_gitmodules_unmerged(ptr noundef %27)
  %29 = icmp ne i32 %28, 0
  br i1 %29, label %33, label %30

30:                                               ; preds = %24
  %31 = load ptr, ptr %3, align 8, !tbaa !31
  %32 = load ptr, ptr %3, align 8, !tbaa !31
  call void @config_from_gitmodules(ptr noundef @gitmodules_cb, ptr noundef %31, ptr noundef %32)
  br label %33

33:                                               ; preds = %30, %24
  %34 = load ptr, ptr %3, align 8, !tbaa !31
  %35 = getelementptr inbounds nuw %struct.repository, ptr %34, i32 0, i32 14
  %36 = load ptr, ptr %35, align 8, !tbaa !33
  %37 = getelementptr inbounds nuw %struct.submodule_cache, ptr %36, i32 0, i32 2
  %38 = load i8, ptr %37, align 8
  %39 = and i8 %38, -3
  %40 = or i8 %39, 2
  store i8 %40, ptr %37, align 8
  br label %41

41:                                               ; preds = %33, %23, %18
  ret void
}