; Function Attrs: nounwind uwtable
define dso_local void @repo_read_gitmodules(ptr noundef %0, i32 noundef %1) local_unnamed_addr #0 {
  %3 = getelementptr inbounds nuw i8, ptr %0, i64 376
  %4 = load ptr, ptr %3, align 8, !tbaa !31
  %.not.i = icmp eq ptr %4, null
  br i1 %.not.i, label %9, label %5

5:                                                ; preds = %2
  %6 = getelementptr inbounds nuw i8, ptr %4, i64 96
  %7 = load i8, ptr %6, align 8
  %8 = and i8 %7, 1
  %.not5.i = icmp eq i8 %8, 0
  br i1 %.not5.i, label %11, label %submodule_cache_check_init.exit

9:                                                ; preds = %2
  %10 = tail call ptr @xcalloc(i64 noundef 1, i64 noundef 104) #15
  store ptr %10, ptr %3, align 8, !tbaa !31
  br label %11

11:                                               ; preds = %9, %5
  %12 = phi ptr [ %4, %5 ], [ %10, %9 ]
  tail call void @hashmap_init(ptr noundef %12, ptr noundef nonnull @config_path_cmp, ptr noundef null, i64 noundef 0) #15
  %13 = getelementptr inbounds nuw i8, ptr %12, i64 48
  tail call void @hashmap_init(ptr noundef nonnull %13, ptr noundef nonnull @config_name_cmp, ptr noundef null, i64 noundef 0) #15
  %14 = getelementptr inbounds nuw i8, ptr %12, i64 96
  %15 = load i8, ptr %14, align 8
  %16 = or i8 %15, 1
  store i8 %16, ptr %14, align 8
  %.pre = load ptr, ptr %3, align 8, !tbaa !31
  %.phi.trans.insert = getelementptr inbounds nuw i8, ptr %.pre, i64 96
  %.pre8 = load i8, ptr %.phi.trans.insert, align 8
  br label %submodule_cache_check_init.exit

submodule_cache_check_init.exit:                  ; preds = %5, %11
  %17 = phi i8 [ %7, %5 ], [ %.pre8, %11 ]
  %18 = and i8 %17, 2
  %19 = icmp ne i8 %18, 0
  %20 = icmp ne i32 %1, 0
  %or.cond = and i1 %20, %19
  br i1 %or.cond, label %34, label %21

21:                                               ; preds = %submodule_cache_check_init.exit
  %22 = tail call i32 @repo_read_index(ptr noundef nonnull %0) #15
  %23 = icmp slt i32 %22, 0
  br i1 %23, label %34, label %24

24:                                               ; preds = %21
  %25 = getelementptr inbounds nuw i8, ptr %0, i64 384
  %26 = load ptr, ptr %25, align 8, !tbaa !49
  %27 = tail call i32 @is_gitmodules_unmerged(ptr noundef %26) #15
  %.not = icmp eq i32 %27, 0
  br i1 %.not, label %28, label %29

28:                                               ; preds = %24
  tail call fastcc void @config_from_gitmodules(ptr noundef nonnull @gitmodules_cb, ptr noundef nonnull %0, ptr noundef nonnull %0)
  br label %29

29:                                               ; preds = %28, %24
  %30 = load ptr, ptr %3, align 8, !tbaa !31
  %31 = getelementptr inbounds nuw i8, ptr %30, i64 96
  %32 = load i8, ptr %31, align 8
  %33 = or i8 %32, 2
  store i8 %33, ptr %31, align 8
  br label %34

34:                                               ; preds = %21, %submodule_cache_check_init.exit, %29
  ret void
}